; Function Attrs: mustprogress nofree norecurse nosync nounwind willreturn memory(argmem: readwrite) uwtable
define hidden void @_ZN6casadi18UniversalNodeOwnerC2EPNS_6SXNodeE(ptr nocapture noundef nonnull writeonly align 8 dereferenceable(9) %0, ptr noundef %1) unnamed_addr #7 align 2 {
  store ptr %1, ptr %0, align 8
  %3 = getelementptr inbounds i8, ptr %0, i64 8
  store i8 1, ptr %3, align 8
  %.not = icmp eq ptr %1, null
  br i1 %.not, label %8, label %4

4:                                                ; preds = %2
  %5 = getelementptr inbounds i8, ptr %1, i64 12
  %6 = load i32, ptr %5, align 4
  %7 = add i32 %6, 1
  store i32 %7, ptr %5, align 4
  br label %8

8:                                                ; preds = %4, %2
  ret void
}